target datalayout = "e-m:e-p270:32:32-p271:32:32-p272:64:64-i64:64-i128:128-f80:128-n8:16:32:64-S128"
target triple = "x86_64-unknown-linux-gnu"

%"class.std::__shared_count" = type { ptr }
%"class.arrow::ArrayBuilder" = type { ptr, ptr, i64, %"class.arrow::TypedBufferBuilder", i64, i64, i64, %"class.std::vector" }
%"class.arrow::TypedBufferBuilder" = type { %"class.arrow::BufferBuilder", i64, i64 }
%"class.arrow::BufferBuilder" = type { %"class.std::shared_ptr", ptr, ptr, i64, i64, i64 }
%"class.std::shared_ptr" = type { %"class.std::__shared_ptr" }
%"class.std::__shared_ptr" = type { ptr, %"class.std::__shared_count" }
%"class.std::vector" = type { %"struct.std::_Vector_base" }
%"struct.std::_Vector_base" = type { %"struct.std::_Vector_base<std::shared_ptr<arrow::ArrayBuilder>, std::allocator<std::shared_ptr<arrow::ArrayBuilder>>>::_Vector_impl" }
%"struct.std::_Vector_base<std::shared_ptr<arrow::ArrayBuilder>, std::allocator<std::shared_ptr<arrow::ArrayBuilder>>>::_Vector_impl" = type { %"struct.std::_Vector_base<std::shared_ptr<arrow::ArrayBuilder>, std::allocator<std::shared_ptr<arrow::ArrayBuilder>>>::_Vector_impl_data" }
%"struct.std::_Vector_base<std::shared_ptr<arrow::ArrayBuilder>, std::allocator<std::shared_ptr<arrow::ArrayBuilder>>>::_Vector_impl_data" = type { ptr, ptr, ptr }
%"class.std::shared_ptr.1" = type { %"class.std::__shared_ptr.2" }
%"class.std::__shared_ptr.2" = type { ptr, %"class.std::__shared_count" }
%"class.std::shared_ptr.4" = type { %"class.std::__shared_ptr.5" }
%"class.std::__shared_ptr.5" = type { ptr, %"class.std::__shared_count" }
%"class.arrow::FixedSizeListBuilder" = type { %"class.arrow::ArrayBuilder", %"class.std::shared_ptr.4", i32, %"class.std::shared_ptr.1" }

; Function Attrs: mustprogress nounwind uwtable
define linkonce_odr noundef ptr @_ZNKSt12__shared_ptrIN5arrow12ArrayBuilderELN9__gnu_cxx12_Lock_policyE2EE3getEv(ptr noundef nonnull align 8 dereferenceable(16) %this) #1 comdat align 2 {
entry:
  %this.addr = alloca ptr, align 8
  store ptr %this, ptr %this.addr, align 8
  %this1 = load ptr, ptr %this.addr, align 8
  %_M_ptr = getelementptr inbounds %"class.std::__shared_ptr.2", ptr %this1, i32 0, i32 0
  %0 = load ptr, ptr %_M_ptr, align 8
  ret ptr %0
}

; Function Attrs: mustprogress nounwind uwtable
define linkonce_odr noundef ptr @_ZNKSt19__shared_ptr_accessIN5arrow12ArrayBuilderELN9__gnu_cxx12_Lock_policyE2ELb0ELb0EE6_M_getEv(ptr noundef nonnull align 1 dereferenceable(1) %this) #1 comdat align 2 {
entry:
  %this.addr = alloca ptr, align 8
  store ptr %this, ptr %this.addr, align 8
  %this1 = load ptr, ptr %this.addr, align 8
  %call = call noundef ptr @_ZNKSt12__shared_ptrIN5arrow12ArrayBuilderELN9__gnu_cxx12_Lock_policyE2EE3getEv(ptr noundef nonnull align 8 dereferenceable(16) %this1) #12
  ret ptr %call
}

; Function Attrs: mustprogress nounwind uwtable
define linkonce_odr noundef ptr @_ZNKSt19__shared_ptr_accessIN5arrow12ArrayBuilderELN9__gnu_cxx12_Lock_policyE2ELb0ELb0EEptEv(ptr noundef nonnull align 1 dereferenceable(1) %this) #1 comdat align 2 {
entry:
  %this.addr = alloca ptr, align 8
  store ptr %this, ptr %this.addr, align 8
  %this1 = load ptr, ptr %this.addr, align 8
  %call = call noundef ptr @_ZNKSt19__shared_ptr_accessIN5arrow12ArrayBuilderELN9__gnu_cxx12_Lock_policyE2ELb0ELb0EE6_M_getEv(ptr noundef nonnull align 1 dereferenceable(1) %this1) #12
  ret ptr %call
}

; Function Attrs: mustprogress uwtable
define void @_ZN5arrow20FixedSizeListBuilder5ResetEv(ptr noundef nonnull align 8 dereferenceable(184) %this) unnamed_addr #0 align 2 {
entry:
  %this.addr = alloca ptr, align 8
  store ptr %this, ptr %this.addr, align 8
  %this1 = load ptr, ptr %this.addr, align 8
  call void @_ZN5arrow12ArrayBuilder5ResetEv(ptr noundef nonnull align 8 dereferenceable(144) %this1)
  %value_builder_ = getelementptr inbounds %"class.arrow::FixedSizeListBuilder", ptr %this1, i32 0, i32 3
  %call = call noundef ptr @_ZNKSt19__shared_ptr_accessIN5arrow12ArrayBuilderELN9__gnu_cxx12_Lock_policyE2ELb0ELb0EEptEv(ptr noundef nonnull align 1 dereferenceable(1) %value_builder_) #12
  %vtable = load ptr, ptr %call, align 8
  %vfn = getelementptr inbounds ptr, ptr %vtable, i64 4
  %0 = load ptr, ptr %vfn, align 8
  call void %0(ptr noundef nonnull align 8 dereferenceable(144) %call)
  ret void
}