; Function Attrs: mustprogress uwtable
define void @_ZN5arrow20FixedSizeListBuilder5ResetEv(ptr noundef nonnull align 8 dereferenceable(184) %this) unnamed_addr #0 align 2 {
entry:
  tail call void @_ZN5arrow12ArrayBuilder5ResetEv(ptr noundef nonnull align 8 dereferenceable(144) %this)
  %value_builder_ = getelementptr inbounds i8, ptr %this, i64 168
  %0 = load ptr, ptr %value_builder_, align 8
  %vtable = load ptr, ptr %0, align 8
  %vfn = getelementptr inbounds i8, ptr %vtable, i64 32
  %1 = load ptr, ptr %vfn, align 8
  tail call void %1(ptr noundef nonnull align 8 dereferenceable(144) %0)
  ret void
}